target datalayout = "e-m:e-p270:32:32-p271:32:32-p272:64:64-i64:64-i128:128-f80:128-n8:16:32:64-S128"
target triple = "x86_64-pc-linux-gnu"

@ett_netb_status = internal global i32 0, align 4
@hf_netb_xmit_corrl = internal global i32 0, align 4
@hf_netb_call_name_type = internal global i32 0, align 4
@hf_netb_data2 = internal global i32 0, align 4
@hf_netb_data2_frame = internal global i32 0, align 4
@hf_netb_data2_user = internal global i32 0, align 4
@hf_netb_data2_status = internal global i32 0, align 4
@hf_netb_status_response = internal global i32 0, align 4
@.str.185 = private unnamed_addr constant [14 x i8] c"Sender's Name\00", align 1
@.str.186 = private unnamed_addr constant [19 x i8] c"NetBIOS 1.x or 2.0\00", align 1
@.str.189 = private unnamed_addr constant [16 x i8] c"Receiver's Name\00", align 1
@.str.195 = private unnamed_addr constant [34 x i8] c"NetBIOS 2.1, %u names sent so far\00", align 1

; Function Attrs: nounwind uwtable
define internal void @nb_xmit_corrl(ptr noundef %0, i32 noundef %1, ptr noundef %2) #0 {
  %4 = alloca ptr, align 8
  %5 = alloca i32, align 4
  %6 = alloca ptr, align 8
  store ptr %0, ptr %4, align 8
  store i32 %1, ptr %5, align 4
  store ptr %2, ptr %6, align 8
  %7 = load ptr, ptr %6, align 8
  %8 = load i32, ptr @hf_netb_xmit_corrl, align 4
  %9 = load ptr, ptr %4, align 8
  %10 = load i32, ptr %5, align 4
  %11 = add i32 %10, 8
  %12 = call ptr @proto_tree_add_item(ptr noundef %7, i32 noundef %8, ptr noundef %9, i32 noundef %11, i32 noundef 2, i32 noundef -2147483648)
  ret void
}

; Function Attrs: nounwind uwtable
define internal void @nb_call_name_type(ptr noundef %0, i32 noundef %1, ptr noundef %2) #0 {
  %4 = alloca ptr, align 8
  %5 = alloca i32, align 4
  %6 = alloca ptr, align 8
  store ptr %0, ptr %4, align 8
  store i32 %1, ptr %5, align 4
  store ptr %2, ptr %6, align 8
  %7 = load ptr, ptr %6, align 8
  %8 = load i32, ptr @hf_netb_call_name_type, align 4
  %9 = load ptr, ptr %4, align 8
  %10 = load i32, ptr %5, align 4
  %11 = add i32 %10, 7
  %12 = call ptr @proto_tree_add_item(ptr noundef %7, i32 noundef %8, ptr noundef %9, i32 noundef %11, i32 noundef 1, i32 noundef -2147483648)
  ret void
}

; Function Attrs: nounwind uwtable
define internal i32 @dissect_netb_status_resp(ptr noundef %0, ptr noundef %1, i32 noundef %2, ptr noundef %3) #0 {
  %5 = alloca ptr, align 8
  %6 = alloca ptr, align 8
  %7 = alloca i32, align 4
  %8 = alloca ptr, align 8
  %9 = alloca i8, align 1
  %10 = alloca ptr, align 8
  %11 = alloca ptr, align 8
  store ptr %0, ptr %5, align 8
  store ptr %1, ptr %6, align 8
  store i32 %2, ptr %7, align 4
  store ptr %3, ptr %8, align 8
  %12 = load ptr, ptr %5, align 8
  %13 = load i32, ptr %7, align 4
  %14 = add i32 %13, 5
  %15 = call zeroext i8 @tvb_get_guint8(ptr noundef %12, i32 noundef %14)
  store i8 %15, ptr %9, align 1
  %16 = load ptr, ptr %5, align 8
  %17 = load i32, ptr %7, align 4
  %18 = load ptr, ptr %8, align 8
  call void @nb_call_name_type(ptr noundef %16, i32 noundef %17, ptr noundef %18)
  %19 = load i8, ptr %9, align 1
  %20 = zext i8 %19 to i32
  %21 = icmp eq i32 %20, 0
  br i1 %21, label %22, label %31

22:                                               ; preds = %4
  %23 = load ptr, ptr %8, align 8
  %24 = load i32, ptr @hf_netb_status_response, align 4
  %25 = load ptr, ptr %5, align 8
  %26 = load i32, ptr %7, align 4
  %27 = add i32 %26, 5
  %28 = load i8, ptr %9, align 1
  %29 = zext i8 %28 to i32
  %30 = call ptr (ptr, i32, ptr, i32, i32, i32, ptr, ...) @proto_tree_add_uint_format_value(ptr noundef %23, i32 noundef %24, ptr noundef %25, i32 noundef %27, i32 noundef 1, i32 noundef %29, ptr noundef @.str.186)
  br label %42

31:                                               ; preds = %4
  %32 = load ptr, ptr %8, align 8
  %33 = load i32, ptr @hf_netb_status_response, align 4
  %34 = load ptr, ptr %5, align 8
  %35 = load i32, ptr %7, align 4
  %36 = add i32 %35, 5
  %37 = load i8, ptr %9, align 1
  %38 = zext i8 %37 to i32
  %39 = load i8, ptr %9, align 1
  %40 = zext i8 %39 to i32
  %41 = call ptr (ptr, i32, ptr, i32, i32, i32, ptr, ...) @proto_tree_add_uint_format_value(ptr noundef %32, i32 noundef %33, ptr noundef %34, i32 noundef %36, i32 noundef 1, i32 noundef %38, ptr noundef @.str.195, i32 noundef %40)
  br label %42

42:                                               ; preds = %31, %22
  %43 = load ptr, ptr %8, align 8
  %44 = load i32, ptr @hf_netb_data2, align 4
  %45 = load ptr, ptr %5, align 8
  %46 = load i32, ptr %7, align 4
  %47 = add i32 %46, 6
  %48 = call ptr @proto_tree_add_item(ptr noundef %43, i32 noundef %44, ptr noundef %45, i32 noundef %47, i32 noundef 2, i32 noundef -2147483648)
  store ptr %48, ptr %10, align 8
  %49 = load ptr, ptr %10, align 8
  %50 = load i32, ptr @ett_netb_status, align 4
  %51 = call ptr @proto_item_add_subtree(ptr noundef %49, i32 noundef %50)
  store ptr %51, ptr %11, align 8
  %52 = load ptr, ptr %11, align 8
  %53 = load i32, ptr @hf_netb_data2_frame, align 4
  %54 = load ptr, ptr %5, align 8
  %55 = load i32, ptr %7, align 4
  %56 = add i32 %55, 6
  %57 = call ptr @proto_tree_add_item(ptr noundef %52, i32 noundef %53, ptr noundef %54, i32 noundef %56, i32 noundef 2, i32 noundef -2147483648)
  %58 = load ptr, ptr %11, align 8
  %59 = load i32, ptr @hf_netb_data2_user, align 4
  %60 = load ptr, ptr %5, align 8
  %61 = load i32, ptr %7, align 4
  %62 = add i32 %61, 6
  %63 = call ptr @proto_tree_add_item(ptr noundef %58, i32 noundef %59, ptr noundef %60, i32 noundef %62, i32 noundef 2, i32 noundef -2147483648)
  %64 = load ptr, ptr %11, align 8
  %65 = load i32, ptr @hf_netb_data2_status, align 4
  %66 = load ptr, ptr %5, align 8
  %67 = load i32, ptr %7, align 4
  %68 = add i32 %67, 6
  %69 = call ptr @proto_tree_add_item(ptr noundef %64, i32 noundef %65, ptr noundef %66, i32 noundef %68, i32 noundef 2, i32 noundef -2147483648)
  %70 = load ptr, ptr %5, align 8
  %71 = load i32, ptr %7, align 4
  %72 = load ptr, ptr %8, align 8
  call void @nb_xmit_corrl(ptr noundef %70, i32 noundef %71, ptr noundef %72)
  %73 = load ptr, ptr %5, align 8
  %74 = load i32, ptr %7, align 4
  %75 = add i32 %74, 12
  %76 = load ptr, ptr %8, align 8
  call void @netbios_add_name(ptr noundef @.str.189, ptr noundef %73, i32 noundef %75, ptr noundef %76)
  %77 = load ptr, ptr %5, align 8
  %78 = load i32, ptr %7, align 4
  %79 = add i32 %78, 28
  %80 = load ptr, ptr %8, align 8
  call void @netbios_add_name(ptr noundef @.str.185, ptr noundef %77, i32 noundef %79, ptr noundef %80)
  ret i32 0
}