; Function Attrs: nounwind uwtable
define internal noundef i32 @dissect_netb_status_resp(ptr noundef %0, ptr readnone captures(none) %1, i32 noundef %2, ptr noundef %3) #1 {
  %5 = add i32 %2, 5
  %6 = tail call zeroext i8 @tvb_get_guint8(ptr noundef %0, i32 noundef %5) #6
  %7 = load i32, ptr @hf_netb_call_name_type, align 4
  %8 = add i32 %2, 7
  %9 = tail call ptr @proto_tree_add_item(ptr noundef %3, i32 noundef %7, ptr noundef %0, i32 noundef %8, i32 noundef 1, i32 noundef -2147483648) #6
  %10 = icmp eq i8 %6, 0
  br i1 %10, label %11, label %14

11:                                               ; preds = %4
  %12 = load i32, ptr @hf_netb_status_response, align 4
  %13 = tail call ptr (ptr, i32, ptr, i32, i32, i32, ptr, ...) @proto_tree_add_uint_format_value(ptr noundef %3, i32 noundef %12, ptr noundef %0, i32 noundef %5, i32 noundef 1, i32 noundef 0, ptr noundef nonnull @.str.186) #6
  br label %18

14:                                               ; preds = %4
  %15 = zext i8 %6 to i32
  %16 = load i32, ptr @hf_netb_status_response, align 4
  %17 = tail call ptr (ptr, i32, ptr, i32, i32, i32, ptr, ...) @proto_tree_add_uint_format_value(ptr noundef %3, i32 noundef %16, ptr noundef %0, i32 noundef %5, i32 noundef 1, i32 noundef %15, ptr noundef nonnull @.str.195, i32 noundef %15) #6
  br label %18

18:                                               ; preds = %14, %11
  %19 = load i32, ptr @hf_netb_data2, align 4
  %20 = add i32 %2, 6
  %21 = tail call ptr @proto_tree_add_item(ptr noundef %3, i32 noundef %19, ptr noundef %0, i32 noundef %20, i32 noundef 2, i32 noundef -2147483648) #6
  %22 = load i32, ptr @ett_netb_status, align 4
  %23 = tail call ptr @proto_item_add_subtree(ptr noundef %21, i32 noundef %22) #6
  %24 = load i32, ptr @hf_netb_data2_frame, align 4
  %25 = tail call ptr @proto_tree_add_item(ptr noundef %23, i32 noundef %24, ptr noundef %0, i32 noundef %20, i32 noundef 2, i32 noundef -2147483648) #6
  %26 = load i32, ptr @hf_netb_data2_user, align 4
  %27 = tail call ptr @proto_tree_add_item(ptr noundef %23, i32 noundef %26, ptr noundef %0, i32 noundef %20, i32 noundef 2, i32 noundef -2147483648) #6
  %28 = load i32, ptr @hf_netb_data2_status, align 4
  %29 = tail call ptr @proto_tree_add_item(ptr noundef %23, i32 noundef %28, ptr noundef %0, i32 noundef %20, i32 noundef 2, i32 noundef -2147483648) #6
  %30 = load i32, ptr @hf_netb_xmit_corrl, align 4
  %31 = add i32 %2, 8
  %32 = tail call ptr @proto_tree_add_item(ptr noundef %3, i32 noundef %30, ptr noundef %0, i32 noundef %31, i32 noundef 2, i32 noundef -2147483648) #6
  %33 = add i32 %2, 12
  tail call void @netbios_add_name(ptr noundef nonnull @.str.189, ptr noundef %0, i32 noundef %33, ptr noundef %3)
  %34 = add i32 %2, 28
  tail call void @netbios_add_name(ptr noundef nonnull @.str.185, ptr noundef %0, i32 noundef %34, ptr noundef %3)
  ret i32 0
}